target datalayout = "e-m:e-p270:32:32-p271:32:32-p272:64:64-i64:64-i128:128-f80:128-n8:16:32:64-S128"
target triple = "x86_64-pc-linux-gnu"

%struct.png_struct_def = type { [1 x %struct.__jmp_buf_tag], ptr, ptr, i64, ptr, ptr, ptr, ptr, ptr, ptr, ptr, ptr, ptr, i8, i8, i32, i32, i32, i32, %struct.z_stream_s, ptr, i32, i32, i32, i32, i32, i32, i32, i32, i32, i32, i32, i32, i32, i32, i32, i32, i32, i32, i32, i32, i32, i64, i32, i32, i32, ptr, ptr, ptr, ptr, i64, i32, i32, ptr, i16, i32, i16, i8, i8, i8, i8, i8, i8, i8, i8, i8, i8, i8, i8, i8, i8, i8, i16, i8, i32, %struct.png_color_16_struct, %struct.png_color_16_struct, ptr, i32, i32, %struct.png_xy, i32, i32, i32, i32, i32, ptr, ptr, ptr, ptr, ptr, ptr, %struct.png_color_8_struct, %struct.png_color_8_struct, ptr, %struct.png_color_16_struct, ptr, ptr, ptr, ptr, ptr, ptr, ptr, ptr, ptr, i32, i32, i64, i64, i64, i64, i32, i32, ptr, ptr, i32, [29 x i8], i32, ptr, ptr, i32, i32, ptr, i8, i8, i16, i16, ptr, i32, i8, ptr, ptr, ptr, ptr, ptr, ptr, ptr, i8, i32, i32, i32, i64, %struct.png_unknown_chunk_t, i64, ptr, i64, i32, i32, ptr, [4 x ptr] }
%struct.__jmp_buf_tag = type { [8 x i64], i32, %struct.__sigset_t }
%struct.__sigset_t = type { [16 x i64] }
%struct.z_stream_s = type { ptr, i32, i64, ptr, i32, i64, ptr, ptr, ptr, ptr, ptr, i32, i64, i64 }
%struct.png_xy = type { i32, i32, i32, i32, i32, i32, i32, i32 }
%struct.png_color_8_struct = type { i8, i8, i8, i8, i8 }
%struct.png_color_16_struct = type { i8, i16, i16, i16, i16 }
%struct.png_unknown_chunk_t = type { [5 x i8], ptr, i64, i8 }

@.str.5 = private unnamed_addr constant [29 x i8] c"invalid window size (libpng)\00", align 1
@.str.37 = private unnamed_addr constant [18 x i8] c"zstream unclaimed\00", align 1

; Function Attrs: nounwind uwtable
define i32 @png_zlib_inflate(ptr noalias noundef %0, i32 noundef %1) #0 {
  %3 = alloca i32, align 4
  %4 = alloca ptr, align 8
  %5 = alloca i32, align 4
  store ptr %0, ptr %4, align 8, !tbaa !3
  store i32 %1, ptr %5, align 4, !tbaa !11
  %6 = load ptr, ptr %4, align 8, !tbaa !3
  %7 = getelementptr inbounds nuw %struct.png_struct_def, ptr %6, i32 0, i32 71
  %8 = load i8, ptr %7, align 8, !tbaa !36
  %9 = zext i8 %8 to i32
  %10 = icmp ne i32 %9, 0
  br i1 %10, label %11, label %33

11:                                               ; preds = %2
  %12 = load ptr, ptr %4, align 8, !tbaa !3
  %13 = getelementptr inbounds nuw %struct.png_struct_def, ptr %12, i32 0, i32 19
  %14 = getelementptr inbounds nuw %struct.z_stream_s, ptr %13, i32 0, i32 1
  %15 = load i32, ptr %14, align 8, !tbaa !37
  %16 = icmp ugt i32 %15, 0
  br i1 %16, label %17, label %33

17:                                               ; preds = %11
  %18 = load ptr, ptr %4, align 8, !tbaa !3
  %19 = getelementptr inbounds nuw %struct.png_struct_def, ptr %18, i32 0, i32 19
  %20 = getelementptr inbounds nuw %struct.z_stream_s, ptr %19, i32 0, i32 0
  %21 = load ptr, ptr %20, align 8, !tbaa !38
  %22 = load i8, ptr %21, align 1, !tbaa !10
  %23 = zext i8 %22 to i32
  %24 = ashr i32 %23, 4
  %25 = icmp sgt i32 %24, 7
  br i1 %25, label %26, label %30

26:                                               ; preds = %17
  %27 = load ptr, ptr %4, align 8, !tbaa !3
  %28 = getelementptr inbounds nuw %struct.png_struct_def, ptr %27, i32 0, i32 19
  %29 = getelementptr inbounds nuw %struct.z_stream_s, ptr %28, i32 0, i32 6
  store ptr @.str.5, ptr %29, align 8, !tbaa !39
  store i32 -3, ptr %3, align 4
  br label %38

30:                                               ; preds = %17
  %31 = load ptr, ptr %4, align 8, !tbaa !3
  %32 = getelementptr inbounds nuw %struct.png_struct_def, ptr %31, i32 0, i32 71
  store i8 0, ptr %32, align 8, !tbaa !36
  br label %33

33:                                               ; preds = %30, %11, %2
  %34 = load ptr, ptr %4, align 8, !tbaa !3
  %35 = getelementptr inbounds nuw %struct.png_struct_def, ptr %34, i32 0, i32 19
  %36 = load i32, ptr %5, align 4, !tbaa !11
  %37 = call i32 @inflate(ptr noundef %35, i32 noundef %36)
  store i32 %37, ptr %3, align 4
  br label %38

38:                                               ; preds = %33, %26
  %39 = load i32, ptr %3, align 4
  ret i32 %39
}

; Function Attrs: nounwind uwtable
define void @png_crc_read(ptr noalias noundef %0, ptr noundef %1, i32 noundef %2) #0 {
  %4 = alloca ptr, align 8
  %5 = alloca ptr, align 8
  %6 = alloca i32, align 4
  store ptr %0, ptr %4, align 8, !tbaa !3
  store ptr %1, ptr %5, align 8, !tbaa !8
  store i32 %2, ptr %6, align 4, !tbaa !11
  %7 = load ptr, ptr %4, align 8, !tbaa !3
  %8 = icmp eq ptr %7, null
  br i1 %8, label %9, label %10

9:                                                ; preds = %3
  br label %19

10:                                               ; preds = %3
  %11 = load ptr, ptr %4, align 8, !tbaa !3
  %12 = load ptr, ptr %5, align 8, !tbaa !8
  %13 = load i32, ptr %6, align 4, !tbaa !11
  %14 = zext i32 %13 to i64
  call void @png_read_data(ptr noundef %11, ptr noundef %12, i64 noundef %14)
  %15 = load ptr, ptr %4, align 8, !tbaa !3
  %16 = load ptr, ptr %5, align 8, !tbaa !8
  %17 = load i32, ptr %6, align 4, !tbaa !11
  %18 = zext i32 %17 to i64
  call void @png_calculate_crc(ptr noundef %15, ptr noundef %16, i64 noundef %18)
  br label %19

19:                                               ; preds = %10, %9
  ret void
}

; Function Attrs: nounwind uwtable
define internal i32 @png_inflate_read(ptr noalias noundef %0, ptr noundef %1, i32 noundef %2, ptr noundef %3, ptr noundef %4, ptr noundef %5, i32 noundef %6) #0 {
  %8 = alloca i32, align 4
  %9 = alloca ptr, align 8
  %10 = alloca ptr, align 8
  %11 = alloca i32, align 4
  %12 = alloca ptr, align 8
  %13 = alloca ptr, align 8
  %14 = alloca ptr, align 8
  %15 = alloca i32, align 4
  %16 = alloca i32, align 4
  %17 = alloca i32, align 4
  store ptr %0, ptr %9, align 8, !tbaa !3
  store ptr %1, ptr %10, align 8, !tbaa !8
  store i32 %2, ptr %11, align 4, !tbaa !11
  store ptr %3, ptr %12, align 8, !tbaa !58
  store ptr %4, ptr %13, align 8, !tbaa !8
  store ptr %5, ptr %14, align 8, !tbaa !200
  store i32 %6, ptr %15, align 4, !tbaa !11
  %18 = load ptr, ptr %9, align 8, !tbaa !3
  %19 = getelementptr inbounds nuw %struct.png_struct_def, ptr %18, i32 0, i32 18
  %20 = load i32, ptr %19, align 8, !tbaa !93
  %21 = load ptr, ptr %9, align 8, !tbaa !3
  %22 = getelementptr inbounds nuw %struct.png_struct_def, ptr %21, i32 0, i32 45
  %23 = load i32, ptr %22, align 8, !tbaa !32
  %24 = icmp eq i32 %20, %23
  br i1 %24, label %25, label %138

25:                                               ; preds = %7
  call void @llvm.lifetime.start.p0(i64 4, ptr %16) #7
  %26 = load ptr, ptr %13, align 8, !tbaa !8
  %27 = load ptr, ptr %9, align 8, !tbaa !3
  %28 = getelementptr inbounds nuw %struct.png_struct_def, ptr %27, i32 0, i32 19
  %29 = getelementptr inbounds nuw %struct.z_stream_s, ptr %28, i32 0, i32 3
  store ptr %26, ptr %29, align 8, !tbaa !85
  %30 = load ptr, ptr %9, align 8, !tbaa !3
  %31 = getelementptr inbounds nuw %struct.png_struct_def, ptr %30, i32 0, i32 19
  %32 = getelementptr inbounds nuw %struct.z_stream_s, ptr %31, i32 0, i32 4
  store i32 0, ptr %32, align 8, !tbaa !86
  br label %33

33:                                               ; preds = %121, %25
  %34 = load ptr, ptr %9, align 8, !tbaa !3
  %35 = getelementptr inbounds nuw %struct.png_struct_def, ptr %34, i32 0, i32 19
  %36 = getelementptr inbounds nuw %struct.z_stream_s, ptr %35, i32 0, i32 1
  %37 = load i32, ptr %36, align 8, !tbaa !37
  %38 = icmp eq i32 %37, 0
  br i1 %38, label %39, label %67

39:                                               ; preds = %33
  %40 = load i32, ptr %11, align 4, !tbaa !11
  %41 = load ptr, ptr %12, align 8, !tbaa !58
  %42 = load i32, ptr %41, align 4, !tbaa !11
  %43 = icmp ugt i32 %40, %42
  br i1 %43, label %44, label %47

44:                                               ; preds = %39
  %45 = load ptr, ptr %12, align 8, !tbaa !58
  %46 = load i32, ptr %45, align 4, !tbaa !11
  store i32 %46, ptr %11, align 4, !tbaa !11
  br label %47

47:                                               ; preds = %44, %39
  %48 = load i32, ptr %11, align 4, !tbaa !11
  %49 = load ptr, ptr %12, align 8, !tbaa !58
  %50 = load i32, ptr %49, align 4, !tbaa !11
  %51 = sub i32 %50, %48
  store i32 %51, ptr %49, align 4, !tbaa !11
  %52 = load i32, ptr %11, align 4, !tbaa !11
  %53 = icmp ugt i32 %52, 0
  br i1 %53, label %54, label %58

54:                                               ; preds = %47
  %55 = load ptr, ptr %9, align 8, !tbaa !3
  %56 = load ptr, ptr %10, align 8, !tbaa !8
  %57 = load i32, ptr %11, align 4, !tbaa !11
  call void @png_crc_read(ptr noundef %55, ptr noundef %56, i32 noundef %57)
  br label %58

58:                                               ; preds = %54, %47
  %59 = load ptr, ptr %10, align 8, !tbaa !8
  %60 = load ptr, ptr %9, align 8, !tbaa !3
  %61 = getelementptr inbounds nuw %struct.png_struct_def, ptr %60, i32 0, i32 19
  %62 = getelementptr inbounds nuw %struct.z_stream_s, ptr %61, i32 0, i32 0
  store ptr %59, ptr %62, align 8, !tbaa !38
  %63 = load i32, ptr %11, align 4, !tbaa !11
  %64 = load ptr, ptr %9, align 8, !tbaa !3
  %65 = getelementptr inbounds nuw %struct.png_struct_def, ptr %64, i32 0, i32 19
  %66 = getelementptr inbounds nuw %struct.z_stream_s, ptr %65, i32 0, i32 1
  store i32 %63, ptr %66, align 8, !tbaa !37
  br label %67

67:                                               ; preds = %58, %33
  %68 = load ptr, ptr %9, align 8, !tbaa !3
  %69 = getelementptr inbounds nuw %struct.png_struct_def, ptr %68, i32 0, i32 19
  %70 = getelementptr inbounds nuw %struct.z_stream_s, ptr %69, i32 0, i32 4
  %71 = load i32, ptr %70, align 8, !tbaa !86
  %72 = icmp eq i32 %71, 0
  br i1 %72, label %73, label %93

73:                                               ; preds = %67
  call void @llvm.lifetime.start.p0(i64 4, ptr %17) #7
  store i32 -1, ptr %17, align 4, !tbaa !11
  %74 = load i32, ptr %17, align 4, !tbaa !11
  %75 = zext i32 %74 to i64
  %76 = load ptr, ptr %14, align 8, !tbaa !200
  %77 = load i64, ptr %76, align 8, !tbaa !29
  %78 = icmp ugt i64 %75, %77
  br i1 %78, label %79, label %83

79:                                               ; preds = %73
  %80 = load ptr, ptr %14, align 8, !tbaa !200
  %81 = load i64, ptr %80, align 8, !tbaa !29
  %82 = trunc i64 %81 to i32
  store i32 %82, ptr %17, align 4, !tbaa !11
  br label %83

83:                                               ; preds = %79, %73
  %84 = load i32, ptr %17, align 4, !tbaa !11
  %85 = zext i32 %84 to i64
  %86 = load ptr, ptr %14, align 8, !tbaa !200
  %87 = load i64, ptr %86, align 8, !tbaa !29
  %88 = sub i64 %87, %85
  store i64 %88, ptr %86, align 8, !tbaa !29
  %89 = load i32, ptr %17, align 4, !tbaa !11
  %90 = load ptr, ptr %9, align 8, !tbaa !3
  %91 = getelementptr inbounds nuw %struct.png_struct_def, ptr %90, i32 0, i32 19
  %92 = getelementptr inbounds nuw %struct.z_stream_s, ptr %91, i32 0, i32 4
  store i32 %89, ptr %92, align 8, !tbaa !86
  call void @llvm.lifetime.end.p0(i64 4, ptr %17) #7
  br label %93

93:                                               ; preds = %83, %67
  %94 = load ptr, ptr %9, align 8, !tbaa !3
  %95 = load ptr, ptr %12, align 8, !tbaa !58
  %96 = load i32, ptr %95, align 4, !tbaa !11
  %97 = icmp ugt i32 %96, 0
  br i1 %97, label %98, label %99

98:                                               ; preds = %93
  br label %103

99:                                               ; preds = %93
  %100 = load i32, ptr %15, align 4, !tbaa !11
  %101 = icmp ne i32 %100, 0
  %102 = select i1 %101, i32 4, i32 2
  br label %103

103:                                              ; preds = %99, %98
  %104 = phi i32 [ 0, %98 ], [ %102, %99 ]
  %105 = call i32 @png_zlib_inflate(ptr noundef %94, i32 noundef %104)
  store i32 %105, ptr %16, align 4, !tbaa !11
  br label %106

106:                                              ; preds = %103
  %107 = load i32, ptr %16, align 4, !tbaa !11
  %108 = icmp eq i32 %107, 0
  br i1 %108, label %109, label %121

109:                                              ; preds = %106
  %110 = load ptr, ptr %14, align 8, !tbaa !200
  %111 = load i64, ptr %110, align 8, !tbaa !29
  %112 = icmp ugt i64 %111, 0
  br i1 %112, label %119, label %113

113:                                              ; preds = %109
  %114 = load ptr, ptr %9, align 8, !tbaa !3
  %115 = getelementptr inbounds nuw %struct.png_struct_def, ptr %114, i32 0, i32 19
  %116 = getelementptr inbounds nuw %struct.z_stream_s, ptr %115, i32 0, i32 4
  %117 = load i32, ptr %116, align 8, !tbaa !86
  %118 = icmp ugt i32 %117, 0
  br label %119

119:                                              ; preds = %113, %109
  %120 = phi i1 [ true, %109 ], [ %118, %113 ]
  br label %121

121:                                              ; preds = %119, %106
  %122 = phi i1 [ false, %106 ], [ %120, %119 ]
  br i1 %122, label %33, label %123, !llvm.loop !202

123:                                              ; preds = %121
  %124 = load ptr, ptr %9, align 8, !tbaa !3
  %125 = getelementptr inbounds nuw %struct.png_struct_def, ptr %124, i32 0, i32 19
  %126 = getelementptr inbounds nuw %struct.z_stream_s, ptr %125, i32 0, i32 4
  %127 = load i32, ptr %126, align 8, !tbaa !86
  %128 = zext i32 %127 to i64
  %129 = load ptr, ptr %14, align 8, !tbaa !200
  %130 = load i64, ptr %129, align 8, !tbaa !29
  %131 = add i64 %130, %128
  store i64 %131, ptr %129, align 8, !tbaa !29
  %132 = load ptr, ptr %9, align 8, !tbaa !3
  %133 = getelementptr inbounds nuw %struct.png_struct_def, ptr %132, i32 0, i32 19
  %134 = getelementptr inbounds nuw %struct.z_stream_s, ptr %133, i32 0, i32 4
  store i32 0, ptr %134, align 8, !tbaa !86
  %135 = load ptr, ptr %9, align 8, !tbaa !3
  %136 = load i32, ptr %16, align 4, !tbaa !11
  call void @png_zstream_error(ptr noundef %135, i32 noundef %136)
  %137 = load i32, ptr %16, align 4, !tbaa !11
  store i32 %137, ptr %8, align 4
  call void @llvm.lifetime.end.p0(i64 4, ptr %16) #7
  br label %142

138:                                              ; preds = %7
  %139 = load ptr, ptr %9, align 8, !tbaa !3
  %140 = getelementptr inbounds nuw %struct.png_struct_def, ptr %139, i32 0, i32 19
  %141 = getelementptr inbounds nuw %struct.z_stream_s, ptr %140, i32 0, i32 6
  store ptr @.str.37, ptr %141, align 8, !tbaa !39
  store i32 -2, ptr %8, align 4
  br label %142

142:                                              ; preds = %138, %123
  %143 = load i32, ptr %8, align 4
  ret i32 %143
}