; Function Attrs: nounwind uwtable
define internal fastcc void @png_inflate_read(ptr noalias noundef %0, ptr noundef nonnull %1, ptr noundef nonnull captures(none) %2, ptr noundef nonnull %3, ptr noundef nonnull captures(none) %4, i32 noundef range(i32 0, 2) %5) unnamed_addr #0 {
  %7 = getelementptr inbounds nuw i8, ptr %0, i64 312
  %8 = load i32, ptr %7, align 8, !tbaa !112
  %9 = getelementptr inbounds nuw i8, ptr %0, i64 544
  %10 = load i32, ptr %9, align 8, !tbaa !28
  %11 = icmp eq i32 %8, %10
  br i1 %11, label %12, label %54

12:                                               ; preds = %6
  %13 = getelementptr inbounds nuw i8, ptr %0, i64 320
  %14 = getelementptr inbounds nuw i8, ptr %0, i64 344
  store ptr %3, ptr %14, align 8, !tbaa !85
  %15 = getelementptr inbounds nuw i8, ptr %0, i64 352
  store i32 0, ptr %15, align 8, !tbaa !86
  %16 = getelementptr inbounds nuw i8, ptr %0, i64 328
  %.not47 = icmp eq i32 %5, 0
  %17 = select i1 %.not47, i32 2, i32 4
  %18 = getelementptr inbounds nuw i8, ptr %0, i64 632
  br label %.critedge2

.critedge2:                                       ; preds = %.critedge2.backedge, %12
  %.043 = phi i32 [ 1024, %12 ], [ %.1, %.critedge2.backedge ]
  %19 = load i32, ptr %16, align 8, !tbaa !39
  %20 = icmp eq i32 %19, 0
  br i1 %20, label %21, label %27

21:                                               ; preds = %.critedge2
  %22 = load i32, ptr %2, align 4, !tbaa !59
  %spec.select = tail call i32 @llvm.umin.i32(i32 %.043, i32 %22)
  %23 = sub i32 %22, %spec.select
  store i32 %23, ptr %2, align 4, !tbaa !59
  %.not = icmp eq i32 %spec.select, 0
  br i1 %.not, label %25, label %png_crc_read.exit

png_crc_read.exit:                                ; preds = %21
  %24 = zext nneg i32 %spec.select to i64
  tail call void @png_read_data(ptr noundef nonnull %0, ptr noundef nonnull %1, i64 noundef %24) #12
  tail call void @png_calculate_crc(ptr noundef nonnull %0, ptr noundef nonnull %1, i64 noundef %24) #12
  br label %25

25:                                               ; preds = %png_crc_read.exit, %21
  store ptr %1, ptr %13, align 8, !tbaa !40
  store i32 %spec.select, ptr %16, align 8, !tbaa !39
  %26 = icmp eq i32 %spec.select, 0
  br label %27

27:                                               ; preds = %25, %.critedge2
  %.not7.i = phi i1 [ %26, %25 ], [ false, %.critedge2 ]
  %.1 = phi i32 [ %spec.select, %25 ], [ %.043, %.critedge2 ]
  %28 = load i32, ptr %15, align 8, !tbaa !86
  %29 = icmp eq i32 %28, 0
  br i1 %29, label %30, label %33

30:                                               ; preds = %27
  %31 = load i64, ptr %4, align 8, !tbaa !168
  %spec.select5053 = tail call i64 @llvm.umin.i64(i64 %31, i64 4294967295)
  %spec.select50 = trunc nuw i64 %spec.select5053 to i32
  %32 = sub i64 %31, %spec.select5053
  store i64 %32, ptr %4, align 8, !tbaa !168
  store i32 %spec.select50, ptr %15, align 8, !tbaa !86
  br label %33

33:                                               ; preds = %30, %27
  %34 = phi i32 [ %spec.select50, %30 ], [ %28, %27 ]
  %35 = load i32, ptr %2, align 4, !tbaa !59
  %.not46 = icmp eq i32 %35, 0
  %36 = select i1 %.not46, i32 %17, i32 0
  tail call void @llvm.experimental.noalias.scope.decl(metadata !240)
  %37 = load i8, ptr %18, align 8, !tbaa !38, !alias.scope !240
  %.not.i = icmp eq i8 %37, 0
  %brmerge = or i1 %.not.i, %.not7.i
  br i1 %brmerge, label %png_zlib_inflate.exit, label %38

38:                                               ; preds = %33
  %39 = load ptr, ptr %13, align 8, !tbaa !40, !alias.scope !240
  %40 = load i8, ptr %39, align 1, !tbaa !3, !noalias !240
  %41 = icmp slt i8 %40, 0
  br i1 %41, label %png_zlib_inflate.exit.thread, label %43

png_zlib_inflate.exit.thread:                     ; preds = %38
  %42 = getelementptr inbounds nuw i8, ptr %0, i64 368
  store ptr @.str.5, ptr %42, align 8, !tbaa !41, !alias.scope !240
  br label %.critedge

43:                                               ; preds = %38
  store i8 0, ptr %18, align 8, !tbaa !38, !alias.scope !240
  br label %png_zlib_inflate.exit

png_zlib_inflate.exit:                            ; preds = %33, %43
  %44 = tail call i32 @inflate(ptr noundef nonnull %13, i32 noundef %36) #12
  %45 = icmp eq i32 %44, 0
  br i1 %45, label %46, label %png_zlib_inflate.exit..critedge.loopexit_crit_edge

png_zlib_inflate.exit..critedge.loopexit_crit_edge: ; preds = %png_zlib_inflate.exit
  %.pre.pre = load i32, ptr %15, align 8, !tbaa !86
  br label %.critedge

46:                                               ; preds = %png_zlib_inflate.exit
  %47 = load i64, ptr %4, align 8, !tbaa !168
  %.not48 = icmp eq i64 %47, 0
  br i1 %.not48, label %48, label %.critedge2.backedge

48:                                               ; preds = %46
  %49 = load i32, ptr %15, align 8, !tbaa !86
  %.not49 = icmp eq i32 %49, 0
  br i1 %.not49, label %.critedge, label %.critedge2.backedge

.critedge2.backedge:                              ; preds = %48, %46
  br label %.critedge2, !llvm.loop !243

.critedge:                                        ; preds = %48, %png_zlib_inflate.exit..critedge.loopexit_crit_edge, %png_zlib_inflate.exit.thread
  %50 = phi i32 [ %34, %png_zlib_inflate.exit.thread ], [ %.pre.pre, %png_zlib_inflate.exit..critedge.loopexit_crit_edge ], [ 0, %48 ]
  %.0.i52 = phi i32 [ -3, %png_zlib_inflate.exit.thread ], [ %44, %png_zlib_inflate.exit..critedge.loopexit_crit_edge ], [ 0, %48 ]
  %51 = zext i32 %50 to i64
  %52 = load i64, ptr %4, align 8, !tbaa !168
  %53 = add i64 %52, %51
  store i64 %53, ptr %4, align 8, !tbaa !168
  store i32 0, ptr %15, align 8, !tbaa !86
  tail call void @png_zstream_error(ptr noundef nonnull %0, i32 noundef %.0.i52) #12
  br label %56

54:                                               ; preds = %6
  %55 = getelementptr inbounds nuw i8, ptr %0, i64 368
  store ptr @.str.37, ptr %55, align 8, !tbaa !41
  br label %56

56:                                               ; preds = %54, %.critedge
  ret void
}